target datalayout = "e-m:e-p270:32:32-p271:32:32-p272:64:64-i64:64-i128:128-f80:128-n8:16:32:64-S128"
target triple = "x86_64-pc-linux-gnu"

; Function Attrs: nounwind uwtable
define hidden ptr @lj_strfmt_wuleb128(ptr noundef %0, i32 noundef %1) #0 {
  %3 = alloca ptr, align 8
  %4 = alloca i32, align 4
  store ptr %0, ptr %3, align 8, !tbaa !13
  store i32 %1, ptr %4, align 4, !tbaa !17
  br label %5

5:                                                ; preds = %15, %2
  %6 = load i32, ptr %4, align 4, !tbaa !17
  %7 = icmp uge i32 %6, 128
  br i1 %7, label %8, label %18

8:                                                ; preds = %5
  %9 = load i32, ptr %4, align 4, !tbaa !17
  %10 = and i32 %9, 127
  %11 = or i32 %10, 128
  %12 = trunc i32 %11 to i8
  %13 = load ptr, ptr %3, align 8, !tbaa !13
  %14 = getelementptr inbounds nuw i8, ptr %13, i32 1
  store ptr %14, ptr %3, align 8, !tbaa !13
  store i8 %12, ptr %13, align 1, !tbaa !16
  br label %15

15:                                               ; preds = %8
  %16 = load i32, ptr %4, align 4, !tbaa !17
  %17 = lshr i32 %16, 7
  store i32 %17, ptr %4, align 4, !tbaa !17
  br label %5, !llvm.loop !26

18:                                               ; preds = %5
  %19 = load i32, ptr %4, align 4, !tbaa !17
  %20 = trunc i32 %19 to i8
  %21 = load ptr, ptr %3, align 8, !tbaa !13
  %22 = getelementptr inbounds nuw i8, ptr %21, i32 1
  store ptr %22, ptr %3, align 8, !tbaa !13
  store i8 %20, ptr %21, align 1, !tbaa !16
  %23 = load ptr, ptr %3, align 8, !tbaa !13
  ret ptr %23
}