; Function Attrs: nofree norecurse nosync nounwind memory(argmem: write) uwtable
define hidden nonnull ptr @lj_strfmt_wuleb128(ptr noundef writeonly captures(ret: address, provenance) %0, i32 noundef %1) local_unnamed_addr #3 {
  %3 = icmp ugt i32 %1, 127
  br i1 %3, label %.lr.ph, label %._crit_edge

.lr.ph:                                           ; preds = %2, %.lr.ph
  %.08 = phi i32 [ %7, %.lr.ph ], [ %1, %2 ]
  %.067 = phi ptr [ %6, %.lr.ph ], [ %0, %2 ]
  %4 = trunc i32 %.08 to i8
  %5 = or i8 %4, -128
  %6 = getelementptr inbounds nuw i8, ptr %.067, i64 1
  store i8 %5, ptr %.067, align 1, !tbaa !13
  %7 = lshr i32 %.08, 7
  %8 = icmp ugt i32 %.08, 16383
  br i1 %8, label %.lr.ph, label %._crit_edge, !llvm.loop !20

._crit_edge:                                      ; preds = %.lr.ph, %2
  %.06.lcssa = phi ptr [ %0, %2 ], [ %6, %.lr.ph ]
  %.0.lcssa = phi i32 [ %1, %2 ], [ %7, %.lr.ph ]
  %9 = trunc nuw nsw i32 %.0.lcssa to i8
  %10 = getelementptr inbounds nuw i8, ptr %.06.lcssa, i64 1
  store i8 %9, ptr %.06.lcssa, align 1, !tbaa !13
  ret ptr %10
}